target datalayout = "e-m:e-p270:32:32-p271:32:32-p272:64:64-i64:64-i128:128-f80:128-n8:16:32:64-S128"
target triple = "x86_64-pc-linux-gnu"

%struct.anon.4 = type { i32, i32, i8 }
%struct.FWCfgState = type { %struct.SysBusDevice, i16, [2 x ptr], ptr, ptr, i16, i32, %struct.Notifier, i32, i8, i64, ptr, %struct.MemoryRegion, i8, i64, i64, i64 }
%struct.SysBusDevice = type { %struct.DeviceState, i32, [32 x %struct.anon], i32, [32 x i32] }
%struct.DeviceState = type { %struct.Object, ptr, ptr, i8, i8, i64, i32, i8, ptr, %struct.NamedGPIOListHead, %struct.NamedClockListHead, %struct.BusStateHead, i32, i32, i32, %struct.ResettableState, ptr, %struct.MemReentrancyGuard }
%struct.Object = type { ptr, ptr, ptr, i32, ptr }
%struct.NamedGPIOListHead = type { ptr }
%struct.NamedClockListHead = type { ptr }
%struct.BusStateHead = type { ptr }
%struct.ResettableState = type { i32, i8, i8 }
%struct.MemReentrancyGuard = type { i8 }
%struct.anon = type { i64, ptr }
%struct.Notifier = type { ptr, %struct.anon.0 }
%struct.anon.0 = type { ptr, ptr }
%struct.MemoryRegion = type { %struct.Object, i8, i8, i8, i8, i8, i8, i8, i8, i8, i8, ptr, ptr, ptr, ptr, ptr, ptr, i32, i128, i64, ptr, i64, i8, i8, i8, i8, ptr, i64, i32, %union.anon, %union.anon.1, %union.anon.2, ptr, i32, ptr, ptr, i8 }
%union.anon = type { %struct.QTailQLink }
%struct.QTailQLink = type { ptr, ptr }
%union.anon.1 = type { %struct.QTailQLink }
%union.anon.2 = type { %struct.QTailQLink }
%struct.ErrorPropagator = type { ptr, ptr }
%struct.FWCfgMemState = type { %struct.FWCfgState, %struct.MemoryRegion, %struct.MemoryRegion, i32, %struct.MemoryRegionOps }
%struct.MemoryRegionOps = type { ptr, ptr, ptr, ptr, i32, %struct.anon.3, %struct.anon.4 }
%struct.anon.3 = type { i32, i32, i8, ptr }

@error_fatal = external global ptr, align 8
@.str.12 = private unnamed_addr constant [7 x i8] c"fw_cfg\00", align 1
@.str.13 = private unnamed_addr constant [11 x i8] c"fw_cfg_mem\00", align 1
@.str.80 = private unnamed_addr constant [104 x i8] c"/home/dtcxzyw/WorkSpace/Projects/compilers/llvm-opt-benchmark/bench/qemu/qemu/include/hw/nvram/fw_cfg.h\00", align 1
@.str.81 = private unnamed_addr constant [15 x i8] c"sys-bus-device\00", align 1
@.str.82 = private unnamed_addr constant [98 x i8] c"/home/dtcxzyw/WorkSpace/Projects/compilers/llvm-opt-benchmark/bench/qemu/qemu/include/hw/sysbus.h\00", align 1
@__func__.SYS_BUS_DEVICE = private unnamed_addr constant [15 x i8] c"SYS_BUS_DEVICE\00", align 1
@__func__.FW_CFG = private unnamed_addr constant [7 x i8] c"FW_CFG\00", align 1
@.str.114 = private unnamed_addr constant [10 x i8] c"fwcfg.dma\00", align 1
@.str.132 = private unnamed_addr constant [10 x i8] c"fwcfg.ctl\00", align 1
@.str.133 = private unnamed_addr constant [11 x i8] c"fwcfg.data\00", align 1
@__func__.FW_CFG_MEM = private unnamed_addr constant [11 x i8] c"FW_CFG_MEM\00", align 1

; Function Attrs: inlinehint nounwind sspstrong uwtable
define internal void @error_propagator_cleanup(ptr noundef %0) #2 {
  %2 = alloca ptr, align 8
  store ptr %0, ptr %2, align 8
  %3 = load ptr, ptr %2, align 8
  %4 = getelementptr inbounds nuw %struct.ErrorPropagator, ptr %3, i32 0, i32 1
  %5 = load ptr, ptr %4, align 8
  %6 = load ptr, ptr %2, align 8
  %7 = getelementptr inbounds nuw %struct.ErrorPropagator, ptr %6, i32 0, i32 0
  %8 = load ptr, ptr %7, align 8
  call void @error_propagate(ptr noundef %5, ptr noundef %8)
  ret void
}

; Function Attrs: inlinehint nounwind sspstrong uwtable
define internal void @glib_auto_cleanup_ErrorPropagator(ptr noundef %0) #2 {
  %2 = alloca ptr, align 8
  store ptr %0, ptr %2, align 8
  %3 = load ptr, ptr %2, align 8
  call void @error_propagator_cleanup(ptr noundef %3)
  ret void
}

; Function Attrs: inlinehint nounwind sspstrong uwtable
define internal ptr @FW_CFG(ptr noundef %0) #2 {
  %2 = alloca ptr, align 8
  store ptr %0, ptr %2, align 8
  %3 = load ptr, ptr %2, align 8
  %4 = call ptr @object_dynamic_cast_assert(ptr noundef %3, ptr noundef @.str.12, ptr noundef @.str.80, i32 noundef 15, ptr noundef @__func__.FW_CFG)
  ret ptr %4
}

; Function Attrs: inlinehint nounwind sspstrong uwtable
define internal ptr @SYS_BUS_DEVICE(ptr noundef %0) #2 {
  %2 = alloca ptr, align 8
  store ptr %0, ptr %2, align 8
  %3 = load ptr, ptr %2, align 8
  %4 = call ptr @object_dynamic_cast_assert(ptr noundef %3, ptr noundef @.str.81, ptr noundef @.str.82, i32 noundef 20, ptr noundef @__func__.SYS_BUS_DEVICE)
  ret ptr %4
}

; Function Attrs: inlinehint nounwind sspstrong uwtable
define internal ptr @FW_CFG_MEM(ptr noundef %0) #2 {
  %2 = alloca ptr, align 8
  store ptr %0, ptr %2, align 8
  %3 = load ptr, ptr %2, align 8
  %4 = call ptr @object_dynamic_cast_assert(ptr noundef %3, ptr noundef @.str.13, ptr noundef @.str.80, i32 noundef 17, ptr noundef @__func__.FW_CFG_MEM)
  ret ptr %4
}

; Function Attrs: nounwind sspstrong uwtable
define internal void @fw_cfg_mem_realize(ptr noundef %0, ptr noundef %1) #0 {
  %3 = alloca ptr, align 8
  %4 = alloca ptr, align 8
  %5 = alloca %struct.ErrorPropagator, align 8
  %6 = alloca ptr, align 8
  %7 = alloca ptr, align 8
  %8 = alloca ptr, align 8
  %9 = alloca i32, align 4
  store ptr %0, ptr %3, align 8
  store ptr %1, ptr %4, align 8
  call void @llvm.lifetime.start.p0(i64 16, ptr %5) #18
  call void @llvm.memset.p0.i64(ptr align 8 %5, i8 0, i64 16, i1 false), !annotation !6
  %10 = getelementptr inbounds nuw %struct.ErrorPropagator, ptr %5, i32 0, i32 0
  store ptr null, ptr %10, align 8
  %11 = getelementptr inbounds nuw %struct.ErrorPropagator, ptr %5, i32 0, i32 1
  %12 = load ptr, ptr %4, align 8
  store ptr %12, ptr %11, align 8
  br label %13

13:                                               ; preds = %2
  %14 = load ptr, ptr %4, align 8
  %15 = icmp ne ptr %14, null
  br i1 %15, label %16, label %19

16:                                               ; preds = %13
  %17 = load ptr, ptr %4, align 8
  %18 = icmp eq ptr %17, @error_fatal
  br i1 %18, label %19, label %21

19:                                               ; preds = %16, %13
  %20 = getelementptr inbounds nuw %struct.ErrorPropagator, ptr %5, i32 0, i32 0
  store ptr %20, ptr %4, align 8
  br label %21

21:                                               ; preds = %19, %16
  br label %22

22:                                               ; preds = %21
  br label %23

23:                                               ; preds = %22
  call void @llvm.lifetime.start.p0(i64 8, ptr %6) #18
  %24 = load ptr, ptr %3, align 8
  %25 = call ptr @FW_CFG_MEM(ptr noundef %24)
  store ptr %25, ptr %6, align 8
  call void @llvm.lifetime.start.p0(i64 8, ptr %7) #18
  %26 = load ptr, ptr %3, align 8
  %27 = call ptr @SYS_BUS_DEVICE(ptr noundef %26)
  store ptr %27, ptr %7, align 8
  call void @llvm.lifetime.start.p0(i64 8, ptr %8) #18
  store ptr @fw_cfg_data_mem_ops, ptr %8, align 8
  %28 = load ptr, ptr %6, align 8
  %29 = call ptr @FW_CFG(ptr noundef %28)
  %30 = load ptr, ptr %4, align 8
  call void @fw_cfg_file_slots_allocate(ptr noundef %29, ptr noundef %30)
  %31 = load ptr, ptr %4, align 8
  %32 = load ptr, ptr %31, align 8
  %33 = icmp ne ptr %32, null
  br i1 %33, label %34, label %35

34:                                               ; preds = %23
  store i32 1, ptr %9, align 4
  br label %106

35:                                               ; preds = %23
  %36 = load ptr, ptr %6, align 8
  %37 = getelementptr inbounds nuw %struct.FWCfgMemState, ptr %36, i32 0, i32 1
  %38 = load ptr, ptr %6, align 8
  %39 = load ptr, ptr %6, align 8
  %40 = call ptr @FW_CFG(ptr noundef %39)
  call void @memory_region_init_io(ptr noundef %37, ptr noundef %38, ptr noundef @fw_cfg_ctl_mem_ops, ptr noundef %40, ptr noundef @.str.132, i64 noundef 2)
  %41 = load ptr, ptr %7, align 8
  %42 = load ptr, ptr %6, align 8
  %43 = getelementptr inbounds nuw %struct.FWCfgMemState, ptr %42, i32 0, i32 1
  call void @sysbus_init_mmio(ptr noundef %41, ptr noundef %43)
  %44 = load ptr, ptr %6, align 8
  %45 = getelementptr inbounds nuw %struct.FWCfgMemState, ptr %44, i32 0, i32 3
  %46 = load i32, ptr %45, align 16
  %47 = load ptr, ptr %8, align 8
  %48 = getelementptr inbounds nuw %struct.MemoryRegionOps, ptr %47, i32 0, i32 5
  %49 = getelementptr inbounds nuw %struct.anon.3, ptr %48, i32 0, i32 1
  %50 = load i32, ptr %49, align 4
  %51 = icmp ugt i32 %46, %50
  br i1 %51, label %52, label %72

52:                                               ; preds = %35
  %53 = load ptr, ptr %6, align 8
  %54 = getelementptr inbounds nuw %struct.FWCfgMemState, ptr %53, i32 0, i32 4
  %55 = load ptr, ptr %8, align 8
  call void @llvm.memcpy.p0.p0.i64(ptr align 8 %54, ptr align 8 %55, i64 80, i1 false)
  %56 = load ptr, ptr %6, align 8
  %57 = getelementptr inbounds nuw %struct.FWCfgMemState, ptr %56, i32 0, i32 3
  %58 = load i32, ptr %57, align 16
  %59 = load ptr, ptr %6, align 8
  %60 = getelementptr inbounds nuw %struct.FWCfgMemState, ptr %59, i32 0, i32 4
  %61 = getelementptr inbounds nuw %struct.MemoryRegionOps, ptr %60, i32 0, i32 5
  %62 = getelementptr inbounds nuw %struct.anon.3, ptr %61, i32 0, i32 1
  store i32 %58, ptr %62, align 4
  %63 = load ptr, ptr %6, align 8
  %64 = getelementptr inbounds nuw %struct.FWCfgMemState, ptr %63, i32 0, i32 3
  %65 = load i32, ptr %64, align 16
  %66 = load ptr, ptr %6, align 8
  %67 = getelementptr inbounds nuw %struct.FWCfgMemState, ptr %66, i32 0, i32 4
  %68 = getelementptr inbounds nuw %struct.MemoryRegionOps, ptr %67, i32 0, i32 6
  %69 = getelementptr inbounds nuw %struct.anon.4, ptr %68, i32 0, i32 1
  store i32 %65, ptr %69, align 4
  %70 = load ptr, ptr %6, align 8
  %71 = getelementptr inbounds nuw %struct.FWCfgMemState, ptr %70, i32 0, i32 4
  store ptr %71, ptr %8, align 8
  br label %72

72:                                               ; preds = %52, %35
  %73 = load ptr, ptr %6, align 8
  %74 = getelementptr inbounds nuw %struct.FWCfgMemState, ptr %73, i32 0, i32 2
  %75 = load ptr, ptr %6, align 8
  %76 = load ptr, ptr %8, align 8
  %77 = load ptr, ptr %6, align 8
  %78 = call ptr @FW_CFG(ptr noundef %77)
  %79 = load ptr, ptr %8, align 8
  %80 = getelementptr inbounds nuw %struct.MemoryRegionOps, ptr %79, i32 0, i32 5
  %81 = getelementptr inbounds nuw %struct.anon.3, ptr %80, i32 0, i32 1
  %82 = load i32, ptr %81, align 4
  %83 = zext i32 %82 to i64
  call void @memory_region_init_io(ptr noundef %74, ptr noundef %75, ptr noundef %76, ptr noundef %78, ptr noundef @.str.133, i64 noundef %83)
  %84 = load ptr, ptr %7, align 8
  %85 = load ptr, ptr %6, align 8
  %86 = getelementptr inbounds nuw %struct.FWCfgMemState, ptr %85, i32 0, i32 2
  call void @sysbus_init_mmio(ptr noundef %84, ptr noundef %86)
  %87 = load ptr, ptr %6, align 8
  %88 = call ptr @FW_CFG(ptr noundef %87)
  %89 = getelementptr inbounds nuw %struct.FWCfgState, ptr %88, i32 0, i32 9
  %90 = load i8, ptr %89, align 4, !range !4, !noundef !5
  %91 = trunc i8 %90 to i1
  br i1 %91, label %92, label %103

92:                                               ; preds = %72
  %93 = load ptr, ptr %6, align 8
  %94 = call ptr @FW_CFG(ptr noundef %93)
  %95 = getelementptr inbounds nuw %struct.FWCfgState, ptr %94, i32 0, i32 12
  %96 = load ptr, ptr %6, align 8
  %97 = load ptr, ptr %6, align 8
  %98 = call ptr @FW_CFG(ptr noundef %97)
  call void @memory_region_init_io(ptr noundef %95, ptr noundef %96, ptr noundef @fw_cfg_dma_mem_ops, ptr noundef %98, ptr noundef @.str.114, i64 noundef 8)
  %99 = load ptr, ptr %7, align 8
  %100 = load ptr, ptr %6, align 8
  %101 = call ptr @FW_CFG(ptr noundef %100)
  %102 = getelementptr inbounds nuw %struct.FWCfgState, ptr %101, i32 0, i32 12
  call void @sysbus_init_mmio(ptr noundef %99, ptr noundef %102)
  br label %103

103:                                              ; preds = %92, %72
  %104 = load ptr, ptr %3, align 8
  %105 = load ptr, ptr %4, align 8
  call void @fw_cfg_common_realize(ptr noundef %104, ptr noundef %105)
  store i32 0, ptr %9, align 4
  br label %106

106:                                              ; preds = %103, %34
  call void @llvm.lifetime.end.p0(i64 8, ptr %8) #18
  call void @llvm.lifetime.end.p0(i64 8, ptr %7) #18
  call void @llvm.lifetime.end.p0(i64 8, ptr %6) #18
  call void @glib_auto_cleanup_ErrorPropagator(ptr noundef %5)
  call void @llvm.lifetime.end.p0(i64 16, ptr %5) #18
  %107 = load i32, ptr %9, align 4
  switch i32 %107, label %109 [
    i32 0, label %108
    i32 1, label %108
  ]

108:                                              ; preds = %106, %106
  ret void

109:                                              ; preds = %106
  unreachable
}