; Function Attrs: nounwind sspstrong uwtable
define internal void @fw_cfg_mem_realize(ptr noundef %0, ptr noundef %1) #2 {
  %3 = alloca %struct.ErrorPropagator, align 8
  call void @llvm.lifetime.start.p0(i64 16, ptr nonnull %3) #18
  %4 = getelementptr inbounds nuw i8, ptr %3, i64 8
  store i64 0, ptr %3, align 8
  store ptr %1, ptr %4, align 8
  %5 = icmp eq ptr %1, null
  %6 = icmp eq ptr %1, @error_fatal
  %or.cond = or i1 %5, %6
  %spec.select = select i1 %or.cond, ptr %3, ptr %1
  %7 = tail call ptr @object_dynamic_cast_assert(ptr noundef %0, ptr noundef nonnull @.str.13, ptr noundef nonnull @.str.80, i32 noundef 17, ptr noundef nonnull @__func__.FW_CFG_MEM) #18
  %8 = tail call ptr @object_dynamic_cast_assert(ptr noundef %0, ptr noundef nonnull @.str.81, ptr noundef nonnull @.str.82, i32 noundef 20, ptr noundef nonnull @__func__.SYS_BUS_DEVICE) #18
  %9 = tail call ptr @object_dynamic_cast_assert(ptr noundef %7, ptr noundef nonnull @.str.12, ptr noundef nonnull @.str.80, i32 noundef 15, ptr noundef nonnull @__func__.FW_CFG) #18
  call fastcc void @fw_cfg_file_slots_allocate(ptr noundef %9, ptr noundef %spec.select)
  %10 = load ptr, ptr %spec.select, align 8
  %.not = icmp eq ptr %10, null
  br i1 %.not, label %11, label %38

11:                                               ; preds = %2
  %12 = getelementptr inbounds nuw i8, ptr %7, i64 1216
  %13 = call ptr @object_dynamic_cast_assert(ptr noundef %7, ptr noundef nonnull @.str.12, ptr noundef nonnull @.str.80, i32 noundef 15, ptr noundef nonnull @__func__.FW_CFG) #18
  call void @memory_region_init_io(ptr noundef nonnull %12, ptr noundef %7, ptr noundef nonnull @fw_cfg_ctl_mem_ops, ptr noundef %13, ptr noundef nonnull @.str.132, i64 noundef 2) #18
  call void @sysbus_init_mmio(ptr noundef %8, ptr noundef nonnull %12) #18
  %14 = getelementptr inbounds nuw i8, ptr %7, i64 1760
  %15 = load i32, ptr %14, align 16
  %16 = icmp ugt i32 %15, 1
  br i1 %16, label %17, label %21

17:                                               ; preds = %11
  %18 = getelementptr inbounds nuw i8, ptr %7, i64 1768
  call void @llvm.memcpy.p0.p0.i64(ptr noundef nonnull align 8 dereferenceable(80) %18, ptr noundef nonnull align 8 dereferenceable(80) @fw_cfg_data_mem_ops, i64 80, i1 false)
  %19 = getelementptr inbounds nuw i8, ptr %7, i64 1812
  store i32 %15, ptr %19, align 4
  %20 = getelementptr inbounds nuw i8, ptr %7, i64 1836
  store i32 %15, ptr %20, align 4
  br label %21

21:                                               ; preds = %17, %11
  %.0 = phi ptr [ %18, %17 ], [ @fw_cfg_data_mem_ops, %11 ]
  %22 = getelementptr inbounds nuw i8, ptr %7, i64 1488
  %23 = call ptr @object_dynamic_cast_assert(ptr noundef nonnull %7, ptr noundef nonnull @.str.12, ptr noundef nonnull @.str.80, i32 noundef 15, ptr noundef nonnull @__func__.FW_CFG) #18
  %24 = getelementptr inbounds nuw i8, ptr %.0, i64 44
  %25 = load i32, ptr %24, align 4
  %26 = zext i32 %25 to i64
  call void @memory_region_init_io(ptr noundef nonnull %22, ptr noundef nonnull %7, ptr noundef nonnull %.0, ptr noundef %23, ptr noundef nonnull @.str.133, i64 noundef %26) #18
  call void @sysbus_init_mmio(ptr noundef %8, ptr noundef nonnull %22) #18
  %27 = call ptr @object_dynamic_cast_assert(ptr noundef nonnull %7, ptr noundef nonnull @.str.12, ptr noundef nonnull @.str.80, i32 noundef 15, ptr noundef nonnull @__func__.FW_CFG) #18
  %28 = getelementptr inbounds nuw i8, ptr %27, i64 884
  %29 = load i8, ptr %28, align 4, !range !4, !noundef !5
  %30 = trunc nuw i8 %29 to i1
  br i1 %30, label %31, label %37

31:                                               ; preds = %21
  %32 = call ptr @object_dynamic_cast_assert(ptr noundef nonnull %7, ptr noundef nonnull @.str.12, ptr noundef nonnull @.str.80, i32 noundef 15, ptr noundef nonnull @__func__.FW_CFG) #18
  %33 = getelementptr inbounds nuw i8, ptr %32, i64 912
  %34 = call ptr @object_dynamic_cast_assert(ptr noundef nonnull %7, ptr noundef nonnull @.str.12, ptr noundef nonnull @.str.80, i32 noundef 15, ptr noundef nonnull @__func__.FW_CFG) #18
  call void @memory_region_init_io(ptr noundef nonnull %33, ptr noundef nonnull %7, ptr noundef nonnull @fw_cfg_dma_mem_ops, ptr noundef %34, ptr noundef nonnull @.str.114, i64 noundef 8) #18
  %35 = call ptr @object_dynamic_cast_assert(ptr noundef nonnull %7, ptr noundef nonnull @.str.12, ptr noundef nonnull @.str.80, i32 noundef 15, ptr noundef nonnull @__func__.FW_CFG) #18
  %36 = getelementptr inbounds nuw i8, ptr %35, i64 912
  call void @sysbus_init_mmio(ptr noundef %8, ptr noundef nonnull %36) #18
  br label %37

37:                                               ; preds = %31, %21
  call fastcc void @fw_cfg_common_realize(ptr noundef %0, ptr noundef nonnull %spec.select)
  br label %38

38:                                               ; preds = %2, %37
  %.val = load ptr, ptr %3, align 8
  %.val40 = load ptr, ptr %4, align 8
  call void @error_propagate(ptr noundef %.val40, ptr noundef %.val) #18
  call void @llvm.lifetime.end.p0(i64 16, ptr nonnull %3) #18
  ret void
}